; ModuleID = '1105.c'
source_filename = "1105.c"
target datalayout = "e-m:e-p270:32:32-p271:32:32-p272:64:64-i64:64-f80:128-n8:16:32:64-S128"
target triple = "x86_64-pc-linux-gnu"

@.str = private unnamed_addr constant [4 x i8] c"%s\0A\00", align 1
@.str.1 = private unnamed_addr constant [5 x i8] c"%s%s\00", align 1

; Function Attrs: noinline nounwind uwtable
define dso_local i32 @number(i8* %0) #0 {
  %2 = alloca i8*, align 8
  %3 = alloca i32, align 4
  %4 = alloca i32, align 4
  store i8* %0, i8** %2, align 8
  store i32 0, i32* %4, align 4
  store i32 0, i32* %3, align 4
  br label %5

5:                                                ; preds = %16, %1
  %6 = load i8*, i8** %2, align 8
  %7 = load i32, i32* %3, align 4
  %8 = sext i32 %7 to i64
  %9 = getelementptr inbounds i8, i8* %6, i64 %8
  %10 = load i8, i8* %9, align 1
  %11 = sext i8 %10 to i32
  %12 = icmp ne i32 %11, 0
  br i1 %12, label %13, label %19

13:                                               ; preds = %5
  %14 = load i32, i32* %4, align 4
  %15 = add nsw i32 %14, 1
  store i32 %15, i32* %4, align 4
  br label %16

16:                                               ; preds = %13
  %17 = load i32, i32* %3, align 4
  %18 = add nsw i32 %17, 1
  store i32 %18, i32* %3, align 4
  br label %5

19:                                               ; preds = %5
  %20 = load i32, i32* %4, align 4
  ret i32 %20
}

; Function Attrs: noinline nounwind uwtable
define dso_local void @change(i8* %0, i32 %1, i8* %2) #0 {
  %4 = alloca i8*, align 8
  %5 = alloca i32, align 4
  %6 = alloca i8*, align 8
  %7 = alloca i32, align 4
  %8 = alloca i32, align 4
  %9 = alloca [13 x i8], align 1
  store i8* %0, i8** %4, align 8
  store i32 %1, i32* %5, align 4
  store i8* %2, i8** %6, align 8
  store i32 0, i32* %8, align 4
  %10 = load i32, i32* %5, align 4
  %11 = add nsw i32 %10, 1
  store i32 %11, i32* %7, align 4
  br label %12

12:                                               ; preds = %35, %3
  %13 = load i8*, i8** %4, align 8
  %14 = load i32, i32* %7, align 4
  %15 = sext i32 %14 to i64
  %16 = getelementptr inbounds i8, i8* %13, i64 %15
  %17 = load i8, i8* %16, align 1
  %18 = sext i8 %17 to i32
  %19 = icmp ne i32 %18, 0
  br i1 %19, label %20, label %38

20:                                               ; preds = %12
  %21 = load i8*, i8** %4, align 8
  %22 = load i32, i32* %7, align 4
  %23 = sext i32 %22 to i64
  %24 = getelementptr inbounds i8, i8* %21, i64 %23
  %25 = load i8, i8* %24, align 1
  %26 = load i32, i32* %8, align 4
  %27 = sext i32 %26 to i64
  %28 = getelementptr inbounds [13 x i8], [13 x i8]* %9, i64 0, i64 %27
  store i8 %25, i8* %28, align 1
  %29 = load i32, i32* %8, align 4
  %30 = add nsw i32 %29, 1
  store i32 %30, i32* %8, align 4
  %31 = load i8*, i8** %4, align 8
  %32 = load i32, i32* %7, align 4
  %33 = sext i32 %32 to i64
  %34 = getelementptr inbounds i8, i8* %31, i64 %33
  store i8 0, i8* %34, align 1
  br label %35

35:                                               ; preds = %20
  %36 = load i32, i32* %7, align 4
  %37 = add nsw i32 %36, 1
  store i32 %37, i32* %7, align 4
  br label %12

38:                                               ; preds = %12
  %39 = load i8*, i8** %4, align 8
  %40 = load i8*, i8** %6, align 8
  %41 = call i8* @strcat(i8* %39, i8* %40) #4
  %42 = load i8*, i8** %4, align 8
  %43 = getelementptr inbounds [13 x i8], [13 x i8]* %9, i64 0, i64 0
  %44 = call i8* @strcat(i8* %42, i8* %43) #4
  %45 = load i8*, i8** %4, align 8
  %46 = call i32 (i8*, ...) @printf(i8* getelementptr inbounds ([4 x i8], [4 x i8]* @.str, i64 0, i64 0), i8* %45)
  ret void
}

; Function Attrs: nounwind
declare dso_local i8* @strcat(i8*, i8*) #1

declare dso_local i32 @printf(i8*, ...) #2

; Function Attrs: noinline nounwind uwtable
define dso_local void @in(i8* %0, i8* %1) #0 {
  %3 = alloca i8*, align 8
  %4 = alloca i8*, align 8
  %5 = alloca i32, align 4
  %6 = alloca i32, align 4
  %7 = alloca i32, align 4
  store i8* %0, i8** %3, align 8
  store i8* %1, i8** %4, align 8
  store i32 0, i32* %5, align 4
  br label %8

8:                                                ; preds = %56, %2
  %9 = load i8*, i8** %3, align 8
  %10 = load i32, i32* %5, align 4
  %11 = sext i32 %10 to i64
  %12 = getelementptr inbounds i8, i8* %9, i64 %11
  %13 = load i8, i8* %12, align 1
  %14 = sext i8 %13 to i32
  %15 = icmp ne i32 %14, 0
  br i1 %15, label %16, label %59

16:                                               ; preds = %8
  store i32 0, i32* %7, align 4
  store i32 0, i32* %6, align 4
  br label %17

17:                                               ; preds = %43, %16
  %18 = load i8*, i8** %3, align 8
  %19 = load i32, i32* %6, align 4
  %20 = sext i32 %19 to i64
  %21 = getelementptr inbounds i8, i8* %18, i64 %20
  %22 = load i8, i8* %21, align 1
  %23 = sext i8 %22 to i32
  %24 = icmp ne i32 %23, 0
  br i1 %24, label %25, label %46

25:                                               ; preds = %17
  %26 = load i8*, i8** %3, align 8
  %27 = load i32, i32* %5, align 4
  %28 = sext i32 %27 to i64
  %29 = getelementptr inbounds i8, i8* %26, i64 %28
  %30 = load i8, i8* %29, align 1
  %31 = sext i8 %30 to i32
  %32 = load i8*, i8** %3, align 8
  %33 = load i32, i32* %6, align 4
  %34 = sext i32 %33 to i64
  %35 = getelementptr inbounds i8, i8* %32, i64 %34
  %36 = load i8, i8* %35, align 1
  %37 = sext i8 %36 to i32
  %38 = icmp sge i32 %31, %37
  br i1 %38, label %39, label %42

39:                                               ; preds = %25
  %40 = load i32, i32* %7, align 4
  %41 = add nsw i32 %40, 1
  store i32 %41, i32* %7, align 4
  br label %42

42:                                               ; preds = %39, %25
  br label %43

43:                                               ; preds = %42
  %44 = load i32, i32* %6, align 4
  %45 = add nsw i32 %44, 1
  store i32 %45, i32* %6, align 4
  br label %17

46:                                               ; preds = %17
  %47 = load i32, i32* %7, align 4
  %48 = load i8*, i8** %3, align 8
  %49 = call i32 @number(i8* %48)
  %50 = icmp eq i32 %47, %49
  br i1 %50, label %51, label %55

51:                                               ; preds = %46
  %52 = load i8*, i8** %3, align 8
  %53 = load i32, i32* %5, align 4
  %54 = load i8*, i8** %4, align 8
  call void @change(i8* %52, i32 %53, i8* %54)
  br label %59

55:                                               ; preds = %46
  br label %56

56:                                               ; preds = %55
  %57 = load i32, i32* %5, align 4
  %58 = add nsw i32 %57, 1
  store i32 %58, i32* %5, align 4
  br label %8

59:                                               ; preds = %51, %8
  ret void
}

; Function Attrs: noinline nounwind uwtable
define dso_local void @removee(i8* %0) #0 {
  %2 = alloca i8*, align 8
  %3 = alloca i32, align 4
  store i8* %0, i8** %2, align 8
  store i32 0, i32* %3, align 4
  br label %4

4:                                                ; preds = %17, %1
  %5 = load i8*, i8** %2, align 8
  %6 = load i32, i32* %3, align 4
  %7 = sext i32 %6 to i64
  %8 = getelementptr inbounds i8, i8* %5, i64 %7
  %9 = load i8, i8* %8, align 1
  %10 = sext i8 %9 to i32
  %11 = icmp ne i32 %10, 0
  br i1 %11, label %12, label %20

12:                                               ; preds = %4
  %13 = load i8*, i8** %2, align 8
  %14 = load i32, i32* %3, align 4
  %15 = sext i32 %14 to i64
  %16 = getelementptr inbounds i8, i8* %13, i64 %15
  store i8 0, i8* %16, align 1
  br label %17

17:                                               ; preds = %12
  %18 = load i32, i32* %3, align 4
  %19 = add nsw i32 %18, 1
  store i32 %19, i32* %3, align 4
  br label %4

20:                                               ; preds = %4
  ret void
}

; Function Attrs: noinline nounwind uwtable
define dso_local i32 @main() #0 {
  %1 = alloca i32, align 4
  %2 = alloca [15 x i8], align 1
  %3 = alloca [4 x i8], align 1
  store i32 0, i32* %1, align 4
  %4 = bitcast [15 x i8]* %2 to i8*
  call void @llvm.memset.p0i8.i64(i8* align 1 %4, i8 0, i64 15, i1 false)
  %5 = bitcast [4 x i8]* %3 to i8*
  call void @llvm.memset.p0i8.i64(i8* align 1 %5, i8 0, i64 4, i1 false)
  br label %6

6:                                                ; preds = %11, %0
  %7 = getelementptr inbounds [15 x i8], [15 x i8]* %2, i64 0, i64 0
  %8 = getelementptr inbounds [4 x i8], [4 x i8]* %3, i64 0, i64 0
  %9 = call i32 (i8*, ...) @__isoc99_scanf(i8* getelementptr inbounds ([5 x i8], [5 x i8]* @.str.1, i64 0, i64 0), i8* %7, i8* %8)
  %10 = icmp ne i32 %9, -1
  br i1 %10, label %11, label %16

11:                                               ; preds = %6
  %12 = getelementptr inbounds [15 x i8], [15 x i8]* %2, i64 0, i64 0
  %13 = getelementptr inbounds [4 x i8], [4 x i8]* %3, i64 0, i64 0
  call void @in(i8* %12, i8* %13)
  %14 = getelementptr inbounds [15 x i8], [15 x i8]* %2, i64 0, i64 0
  call void @removee(i8* %14)
  %15 = getelementptr inbounds [4 x i8], [4 x i8]* %3, i64 0, i64 0
  call void @removee(i8* %15)
  br label %6

16:                                               ; preds = %6
  %17 = load i32, i32* %1, align 4
  ret i32 %17
}

; Function Attrs: argmemonly nounwind willreturn
declare void @llvm.memset.p0i8.i64(i8* nocapture writeonly, i8, i64, i1 immarg) #3

declare dso_local i32 @__isoc99_scanf(i8*, ...) #2


!llvm.module.flags = !{!0}
!llvm.ident = !{!1}

!0 = !{i32 1, !"wchar_size", i32 4}
!1 = !{!"clang version 10.0.0-4ubuntu1 "}
